target datalayout = "e-m:e-p270:32:32-p271:32:32-p272:64:64-i64:64-i128:128-f80:128-n8:16:32:64-S128"
target triple = "x86_64-pc-linux-gnu"

%struct.bio_st = type { ptr, ptr, ptr, ptr, ptr, i32, i32, i32, i32, i32, ptr, ptr, ptr, %struct.CRYPTO_REF_COUNT, i64, i64, %struct.crypto_ex_data_st }
%struct.CRYPTO_REF_COUNT = type { i32 }
%struct.crypto_ex_data_st = type { ptr, ptr }

@.str.2 = private unnamed_addr constant [33 x i8] c"../openssl/crypto/bio/bss_sock.c\00", align 1

; Function Attrs: nounwind uwtable
define internal i32 @sock_new(ptr noundef %0) #0 {
  %2 = alloca i32, align 4
  %3 = alloca ptr, align 8
  store ptr %0, ptr %3, align 8, !tbaa !7
  %4 = load ptr, ptr %3, align 8, !tbaa !7
  %5 = getelementptr inbounds nuw %struct.bio_st, ptr %4, i32 0, i32 5
  store i32 0, ptr %5, align 8, !tbaa !27
  %6 = load ptr, ptr %3, align 8, !tbaa !7
  %7 = getelementptr inbounds nuw %struct.bio_st, ptr %6, i32 0, i32 9
  store i32 0, ptr %7, align 8, !tbaa !12
  %8 = load ptr, ptr %3, align 8, !tbaa !7
  %9 = getelementptr inbounds nuw %struct.bio_st, ptr %8, i32 0, i32 7
  store i32 0, ptr %9, align 8, !tbaa !20
  %10 = call noalias ptr @CRYPTO_zalloc(i64 noundef 116, ptr noundef @.str.2, i32 noundef 94)
  %11 = load ptr, ptr %3, align 8, !tbaa !7
  %12 = getelementptr inbounds nuw %struct.bio_st, ptr %11, i32 0, i32 10
  store ptr %10, ptr %12, align 8, !tbaa !23
  %13 = load ptr, ptr %3, align 8, !tbaa !7
  %14 = getelementptr inbounds nuw %struct.bio_st, ptr %13, i32 0, i32 10
  %15 = load ptr, ptr %14, align 8, !tbaa !23
  %16 = icmp eq ptr %15, null
  br i1 %16, label %17, label %18

17:                                               ; preds = %1
  store i32 0, ptr %2, align 4
  br label %19

18:                                               ; preds = %1
  store i32 1, ptr %2, align 4
  br label %19

19:                                               ; preds = %18, %17
  %20 = load i32, ptr %2, align 4
  ret i32 %20
}