; Function Attrs: nounwind uwtable
define internal range(i32 0, 2) i32 @sock_new(ptr noundef writeonly captures(none) initializes((40, 44), (48, 52), (56, 60), (64, 72)) %0) #1 {
  %2 = getelementptr inbounds nuw i8, ptr %0, i64 40
  store i32 0, ptr %2, align 8, !tbaa !21
  %3 = getelementptr inbounds nuw i8, ptr %0, i64 56
  store i32 0, ptr %3, align 8, !tbaa !7
  %4 = getelementptr inbounds nuw i8, ptr %0, i64 48
  store i32 0, ptr %4, align 8, !tbaa !18
  %5 = tail call noalias ptr @CRYPTO_zalloc(i64 noundef 116, ptr noundef nonnull @.str.2, i32 noundef 94) #8
  %6 = getelementptr inbounds nuw i8, ptr %0, i64 64
  store ptr %5, ptr %6, align 8, !tbaa !19
  %7 = icmp ne ptr %5, null
  %. = zext i1 %7 to i32
  ret i32 %.
}